; Function Attrs: nounwind uwtable
define internal range(i32 -1, 1) i32 @H5P__dcrt_fill_value_copy(ptr readnone captures(none) %0, i64 %1, ptr noundef %2) #0 {
  %4 = alloca %struct.H5O_fill_t, align 8
  call void @llvm.lifetime.start.p0(i64 88, ptr nonnull %4) #12
  %5 = load i8, ptr @H5P_init_g, align 1, !tbaa !3, !range !7, !noundef !8
  %6 = trunc nuw i8 %5 to i1
  %7 = load i8, ptr @H5_libterm_g, align 1, !range !7
  %8 = trunc nuw i8 %7 to i1
  %9 = xor i1 %8, true
  %10 = select i1 %6, i1 true, i1 %9
  br i1 %10, label %11, label %19, !prof !9

11:                                               ; preds = %3
  %12 = call ptr @H5O_msg_copy(i32 noundef 4, ptr noundef %2, ptr noundef nonnull %4) #12
  %13 = icmp eq ptr %12, null
  br i1 %13, label %14, label %18

14:                                               ; preds = %11
  %15 = load i64, ptr @H5E_PLIST_g, align 8, !tbaa !10
  %16 = load i64, ptr @H5E_CANTCOPY_g, align 8, !tbaa !10
  %17 = call i32 (ptr, ptr, i32, i64, i64, ptr, ...) @H5E_printf_stack(ptr noundef nonnull @.str.1, ptr noundef nonnull @__func__.H5P__dcrt_fill_value_copy, i32 noundef 1230, i64 noundef %15, i64 noundef %16, ptr noundef nonnull @.str.99) #12
  br label %19

18:                                               ; preds = %11
  call void @llvm.memcpy.p0.p0.i64(ptr noundef nonnull align 8 dereferenceable(88) %2, ptr noundef nonnull align 8 dereferenceable(88) %4, i64 88, i1 false), !tbaa.struct !90
  br label %19

19:                                               ; preds = %14, %18, %3
  %.0 = phi i32 [ -1, %14 ], [ 0, %18 ], [ 0, %3 ]
  call void @llvm.lifetime.end.p0(i64 88, ptr nonnull %4) #12
  ret i32 %.0
}